target datalayout = "e-m:e-p270:32:32-p271:32:32-p272:64:64-i64:64-i128:128-f80:128-n8:16:32:64-S128"
target triple = "x86_64-pc-linux-gnu"

%struct.jpeg_decompress_struct = type { ptr, ptr, ptr, ptr, i32, i32, ptr, i32, i32, i32, i32, i32, i32, i32, double, i32, i32, i32, i32, i32, i32, i32, i32, i32, i32, i32, i32, i32, i32, i32, i32, i32, i32, ptr, i32, i32, i32, i32, i32, ptr, [4 x ptr], [4 x ptr], [4 x ptr], i32, ptr, i32, i32, [16 x i8], [16 x i8], [16 x i8], i32, i32, i8, i8, i8, i16, i16, i32, i8, i32, ptr, i32, i32, i32, i32, ptr, i32, [4 x ptr], i32, i32, i32, [10 x i32], i32, i32, i32, i32, i32, ptr, ptr, ptr, ptr, ptr, ptr, ptr, ptr, ptr, ptr, ptr }

@simd_support = internal thread_local global i32 -1, align 4

; Function Attrs: nounwind uwtable
define void @jsimd_h2v2_merged_upsample(ptr noundef %0, ptr noundef %1, i32 noundef %2, ptr noundef %3) #0 {
  %5 = alloca ptr, align 8
  %6 = alloca ptr, align 8
  %7 = alloca i32, align 4
  %8 = alloca ptr, align 8
  %9 = alloca ptr, align 8
  %10 = alloca ptr, align 8
  store ptr %0, ptr %5, align 8, !tbaa !33
  store ptr %1, ptr %6, align 8, !tbaa !12
  store i32 %2, ptr %7, align 4, !tbaa !3
  store ptr %3, ptr %8, align 8, !tbaa !10
  call void @llvm.lifetime.start.p0(i64 8, ptr %9) #9
  call void @llvm.lifetime.start.p0(i64 8, ptr %10) #9
  %11 = call align 4 ptr @llvm.threadlocal.address.p0(ptr align 4 @simd_support)
  %12 = load i32, ptr %11, align 4, !tbaa !3
  %13 = icmp eq i32 %12, -1
  br i1 %13, label %14, label %15

14:                                               ; preds = %4
  call void @init_simd()
  br label %15

15:                                               ; preds = %14, %4
  %16 = load ptr, ptr %5, align 8, !tbaa !33
  %17 = getelementptr inbounds nuw %struct.jpeg_decompress_struct, ptr %16, i32 0, i32 11
  %18 = load i32, ptr %17, align 8, !tbaa !35
  switch i32 %18, label %25 [
    i32 6, label %19
    i32 7, label %20
    i32 12, label %20
    i32 8, label %21
    i32 9, label %22
    i32 13, label %22
    i32 10, label %23
    i32 14, label %23
    i32 11, label %24
    i32 15, label %24
  ]

19:                                               ; preds = %15
  store ptr @jsimd_h2v2_extrgb_merged_upsample_avx2, ptr %9, align 8, !tbaa !31
  store ptr @jsimd_h2v2_extrgb_merged_upsample_sse2, ptr %10, align 8, !tbaa !31
  br label %26

20:                                               ; preds = %15, %15
  store ptr @jsimd_h2v2_extrgbx_merged_upsample_avx2, ptr %9, align 8, !tbaa !31
  store ptr @jsimd_h2v2_extrgbx_merged_upsample_sse2, ptr %10, align 8, !tbaa !31
  br label %26

21:                                               ; preds = %15
  store ptr @jsimd_h2v2_extbgr_merged_upsample_avx2, ptr %9, align 8, !tbaa !31
  store ptr @jsimd_h2v2_extbgr_merged_upsample_sse2, ptr %10, align 8, !tbaa !31
  br label %26

22:                                               ; preds = %15, %15
  store ptr @jsimd_h2v2_extbgrx_merged_upsample_avx2, ptr %9, align 8, !tbaa !31
  store ptr @jsimd_h2v2_extbgrx_merged_upsample_sse2, ptr %10, align 8, !tbaa !31
  br label %26

23:                                               ; preds = %15, %15
  store ptr @jsimd_h2v2_extxbgr_merged_upsample_avx2, ptr %9, align 8, !tbaa !31
  store ptr @jsimd_h2v2_extxbgr_merged_upsample_sse2, ptr %10, align 8, !tbaa !31
  br label %26

24:                                               ; preds = %15, %15
  store ptr @jsimd_h2v2_extxrgb_merged_upsample_avx2, ptr %9, align 8, !tbaa !31
  store ptr @jsimd_h2v2_extxrgb_merged_upsample_sse2, ptr %10, align 8, !tbaa !31
  br label %26

25:                                               ; preds = %15
  store ptr @jsimd_h2v2_merged_upsample_avx2, ptr %9, align 8, !tbaa !31
  store ptr @jsimd_h2v2_merged_upsample_sse2, ptr %10, align 8, !tbaa !31
  br label %26

26:                                               ; preds = %25, %24, %23, %22, %21, %20, %19
  %27 = call align 4 ptr @llvm.threadlocal.address.p0(ptr align 4 @simd_support)
  %28 = load i32, ptr %27, align 4, !tbaa !3
  %29 = and i32 %28, 128
  %30 = icmp ne i32 %29, 0
  br i1 %30, label %31, label %39

31:                                               ; preds = %26
  %32 = load ptr, ptr %9, align 8, !tbaa !31
  %33 = load ptr, ptr %5, align 8, !tbaa !33
  %34 = getelementptr inbounds nuw %struct.jpeg_decompress_struct, ptr %33, i32 0, i32 27
  %35 = load i32, ptr %34, align 8, !tbaa !52
  %36 = load ptr, ptr %6, align 8, !tbaa !12
  %37 = load i32, ptr %7, align 4, !tbaa !3
  %38 = load ptr, ptr %8, align 8, !tbaa !10
  call void %32(i32 noundef %35, ptr noundef %36, i32 noundef %37, ptr noundef %38)
  br label %47

39:                                               ; preds = %26
  %40 = load ptr, ptr %10, align 8, !tbaa !31
  %41 = load ptr, ptr %5, align 8, !tbaa !33
  %42 = getelementptr inbounds nuw %struct.jpeg_decompress_struct, ptr %41, i32 0, i32 27
  %43 = load i32, ptr %42, align 8, !tbaa !52
  %44 = load ptr, ptr %6, align 8, !tbaa !12
  %45 = load i32, ptr %7, align 4, !tbaa !3
  %46 = load ptr, ptr %8, align 8, !tbaa !10
  call void %40(i32 noundef %43, ptr noundef %44, i32 noundef %45, ptr noundef %46)
  br label %47

47:                                               ; preds = %39, %31
  call void @llvm.lifetime.end.p0(i64 8, ptr %10) #9
  call void @llvm.lifetime.end.p0(i64 8, ptr %9) #9
  ret void
}